target datalayout = "e-m:e-p270:32:32-p271:32:32-p272:64:64-i64:64-i128:128-f80:128-n8:16:32:64-S128"
target triple = "x86_64-pc-linux-gnu"

%struct.pointf_s = type { double, double }
%struct.Agobj_s = type { %struct.Agtag_s, ptr }
%struct.Agtag_s = type { i32, i64 }
%struct.Agrec_s = type { ptr, ptr }
%struct.boxf = type { %struct.pointf_s, %struct.pointf_s }
%struct.Agnodeinfo_t = type { %struct.Agrec_s, ptr, ptr, %struct.pointf_s, double, double, %struct.boxf, double, double, double, double, double, ptr, ptr, ptr, i8, i8, i8, i8, i32, i32, i32, ptr, double, i8, i8, ptr, ptr, i8, i64, i8, i8, i8, ptr, ptr, %struct.elist, %struct.elist, %struct.elist, %struct.elist, %struct.elist, ptr, i32, ptr, i32, i32, double, %struct.elist, %struct.elist, %struct.elist, %struct.elist, ptr, i32, i32, i32, [1 x double] }
%struct.elist = type { ptr, i64 }
%struct.Agraphinfo_t = type { %struct.Agrec_s, ptr, ptr, %struct.boxf, [4 x %struct.pointf_s], i8, i8, i8, i8, i32, double, double, i16, ptr, ptr, ptr, ptr, i32, ptr, ptr, ptr, ptr, i16, i16, i32, ptr, ptr, ptr, ptr, ptr, i32, ptr, ptr, %struct.nlist_t, ptr, ptr, i32, i32, i8, i8, i32, i32, i32, ptr, ptr, ptr, ptr, i8, i8, i8, i8, i8 }
%struct.nlist_t = type { ptr, i64 }

; Function Attrs: nounwind uwtable
define i32 @spline_edges1(ptr noundef %0, i32 noundef %1) #0 {
  %3 = alloca ptr, align 8
  %4 = alloca i32, align 4
  store ptr %0, ptr %3, align 8, !tbaa !123
  store i32 %1, ptr %4, align 4, !tbaa !45
  %5 = load ptr, ptr %3, align 8, !tbaa !123
  %6 = load i32, ptr %4, align 4, !tbaa !45
  %7 = call i32 @splineEdges(ptr noundef %5, ptr noundef @spline_edges_, i32 noundef %6)
  ret i32 %7
}

; Function Attrs: nounwind uwtable
define void @spline_edges0(ptr noundef %0, i1 noundef zeroext %1) #0 {
  %3 = alloca ptr, align 8
  %4 = alloca i8, align 1
  %5 = alloca i32, align 4
  %6 = alloca i32, align 4
  store ptr %0, ptr %3, align 8, !tbaa !123
  %7 = zext i1 %1 to i8
  store i8 %7, ptr %4, align 1, !tbaa !47
  call void @llvm.lifetime.start.p0(i64 4, ptr %5) #11
  %8 = load ptr, ptr %3, align 8, !tbaa !123
  %9 = getelementptr inbounds nuw %struct.Agobj_s, ptr %8, i32 0, i32 1
  %10 = load ptr, ptr %9, align 8, !tbaa !21
  %11 = getelementptr inbounds nuw %struct.Agraphinfo_t, ptr %10, i32 0, i32 12
  %12 = load i16, ptr %11, align 8, !tbaa !162
  %13 = zext i16 %12 to i32
  %14 = and i32 %13, 14
  store i32 %14, ptr %5, align 4, !tbaa !45
  %15 = load i8, ptr %4, align 1, !tbaa !47, !range !48, !noundef !49
  %16 = trunc i8 %15 to i1
  br i1 %16, label %17, label %20

17:                                               ; preds = %2
  %18 = load ptr, ptr %3, align 8, !tbaa !123
  %19 = call zeroext i1 @neato_set_aspect(ptr noundef %18)
  br label %20

20:                                               ; preds = %17, %2
  %21 = load i32, ptr %5, align 4, !tbaa !45
  %22 = icmp eq i32 %21, 0
  br i1 %22, label %23, label %24

23:                                               ; preds = %20
  store i32 1, ptr %6, align 4
  br label %28

24:                                               ; preds = %20
  %25 = load ptr, ptr %3, align 8, !tbaa !123
  %26 = load i32, ptr %5, align 4, !tbaa !45
  %27 = call i32 @spline_edges1(ptr noundef %25, i32 noundef %26)
  store i32 0, ptr %6, align 4
  br label %28

28:                                               ; preds = %24, %23
  call void @llvm.lifetime.end.p0(i64 4, ptr %5) #11
  %29 = load i32, ptr %6, align 4
  switch i32 %29, label %31 [
    i32 0, label %30
    i32 1, label %30
  ]

30:                                               ; preds = %28, %28
  ret void

31:                                               ; preds = %28
  unreachable
}

; Function Attrs: nounwind uwtable
define void @spline_edges(ptr noundef %0) #0 {
  %2 = alloca ptr, align 8
  %3 = alloca ptr, align 8
  %4 = alloca %struct.pointf_s, align 8
  store ptr %0, ptr %2, align 8, !tbaa !123
  call void @llvm.lifetime.start.p0(i64 8, ptr %3) #11
  call void @llvm.lifetime.start.p0(i64 16, ptr %4) #11
  %5 = load ptr, ptr %2, align 8, !tbaa !123
  call void @compute_bb(ptr noundef %5)
  %6 = load ptr, ptr %2, align 8, !tbaa !123
  %7 = getelementptr inbounds nuw %struct.Agobj_s, ptr %6, i32 0, i32 1
  %8 = load ptr, ptr %7, align 8, !tbaa !21
  %9 = getelementptr inbounds nuw %struct.Agraphinfo_t, ptr %8, i32 0, i32 3
  %10 = getelementptr inbounds nuw %struct.boxf, ptr %9, i32 0, i32 0
  %11 = getelementptr inbounds nuw %struct.pointf_s, ptr %10, i32 0, i32 0
  %12 = load double, ptr %11, align 8, !tbaa !165
  %13 = fdiv double %12, 7.200000e+01
  %14 = getelementptr inbounds nuw %struct.pointf_s, ptr %4, i32 0, i32 0
  store double %13, ptr %14, align 8, !tbaa !76
  %15 = load ptr, ptr %2, align 8, !tbaa !123
  %16 = getelementptr inbounds nuw %struct.Agobj_s, ptr %15, i32 0, i32 1
  %17 = load ptr, ptr %16, align 8, !tbaa !21
  %18 = getelementptr inbounds nuw %struct.Agraphinfo_t, ptr %17, i32 0, i32 3
  %19 = getelementptr inbounds nuw %struct.boxf, ptr %18, i32 0, i32 0
  %20 = getelementptr inbounds nuw %struct.pointf_s, ptr %19, i32 0, i32 1
  %21 = load double, ptr %20, align 8, !tbaa !166
  %22 = fdiv double %21, 7.200000e+01
  %23 = getelementptr inbounds nuw %struct.pointf_s, ptr %4, i32 0, i32 1
  store double %22, ptr %23, align 8, !tbaa !78
  %24 = load ptr, ptr %2, align 8, !tbaa !123
  %25 = call ptr @agfstnode(ptr noundef %24)
  store ptr %25, ptr %3, align 8, !tbaa !10
  br label %26

26:                                               ; preds = %50, %1
  %27 = load ptr, ptr %3, align 8, !tbaa !10
  %28 = icmp ne ptr %27, null
  br i1 %28, label %29, label %54

29:                                               ; preds = %26
  %30 = getelementptr inbounds nuw %struct.pointf_s, ptr %4, i32 0, i32 0
  %31 = load double, ptr %30, align 8, !tbaa !76
  %32 = load ptr, ptr %3, align 8, !tbaa !10
  %33 = getelementptr inbounds nuw %struct.Agobj_s, ptr %32, i32 0, i32 1
  %34 = load ptr, ptr %33, align 8, !tbaa !21
  %35 = getelementptr inbounds nuw %struct.Agnodeinfo_t, ptr %34, i32 0, i32 22
  %36 = load ptr, ptr %35, align 8, !tbaa !163
  %37 = getelementptr inbounds double, ptr %36, i64 0
  %38 = load double, ptr %37, align 8, !tbaa !12
  %39 = fsub double %38, %31
  store double %39, ptr %37, align 8, !tbaa !12
  %40 = getelementptr inbounds nuw %struct.pointf_s, ptr %4, i32 0, i32 1
  %41 = load double, ptr %40, align 8, !tbaa !78
  %42 = load ptr, ptr %3, align 8, !tbaa !10
  %43 = getelementptr inbounds nuw %struct.Agobj_s, ptr %42, i32 0, i32 1
  %44 = load ptr, ptr %43, align 8, !tbaa !21
  %45 = getelementptr inbounds nuw %struct.Agnodeinfo_t, ptr %44, i32 0, i32 22
  %46 = load ptr, ptr %45, align 8, !tbaa !163
  %47 = getelementptr inbounds double, ptr %46, i64 1
  %48 = load double, ptr %47, align 8, !tbaa !12
  %49 = fsub double %48, %41
  store double %49, ptr %47, align 8, !tbaa !12
  br label %50

50:                                               ; preds = %29
  %51 = load ptr, ptr %2, align 8, !tbaa !123
  %52 = load ptr, ptr %3, align 8, !tbaa !10
  %53 = call ptr @agnxtnode(ptr noundef %51, ptr noundef %52)
  store ptr %53, ptr %3, align 8, !tbaa !10
  br label %26, !llvm.loop !167

54:                                               ; preds = %26
  %55 = load ptr, ptr %2, align 8, !tbaa !123
  %56 = load ptr, ptr %2, align 8, !tbaa !123
  %57 = getelementptr inbounds nuw %struct.Agobj_s, ptr %56, i32 0, i32 1
  %58 = load ptr, ptr %57, align 8, !tbaa !21
  %59 = getelementptr inbounds nuw %struct.Agraphinfo_t, ptr %58, i32 0, i32 3
  %60 = getelementptr inbounds nuw %struct.boxf, ptr %59, i32 0, i32 0
  %61 = getelementptr inbounds nuw { double, double }, ptr %60, i32 0, i32 0
  %62 = load double, ptr %61, align 8
  %63 = getelementptr inbounds nuw { double, double }, ptr %60, i32 0, i32 1
  %64 = load double, ptr %63, align 8
  call void @shiftClusters(ptr noundef %55, double %62, double %64)
  %65 = load ptr, ptr %2, align 8, !tbaa !123
  call void @spline_edges0(ptr noundef %65, i1 noundef zeroext true)
  call void @llvm.lifetime.end.p0(i64 16, ptr %4) #11
  call void @llvm.lifetime.end.p0(i64 8, ptr %3) #11
  ret void
}