; Function Attrs: nounwind uwtable
define void @spline_edges(ptr noundef %0) local_unnamed_addr #3 {
  tail call void @compute_bb(ptr noundef %0) #20
  %2 = getelementptr inbounds nuw i8, ptr %0, i64 16
  %3 = load ptr, ptr %2, align 8, !tbaa !20
  %4 = getelementptr inbounds nuw i8, ptr %3, i64 32
  %5 = load double, ptr %4, align 8, !tbaa !137
  %6 = fdiv double %5, 7.200000e+01
  %7 = getelementptr inbounds nuw i8, ptr %3, i64 40
  %8 = load double, ptr %7, align 8, !tbaa !138
  %9 = fdiv double %8, 7.200000e+01
  %10 = tail call ptr @agfstnode(ptr noundef %0) #20
  %.not12 = icmp eq ptr %10, null
  br i1 %.not12, label %._crit_edge, label %.lr.ph

.lr.ph:                                           ; preds = %1, %.lr.ph
  %.013 = phi ptr [ %20, %.lr.ph ], [ %10, %1 ]
  %11 = getelementptr inbounds nuw i8, ptr %.013, i64 16
  %12 = load ptr, ptr %11, align 8, !tbaa !20
  %13 = getelementptr inbounds nuw i8, ptr %12, i64 176
  %14 = load ptr, ptr %13, align 8, !tbaa !145
  %15 = load double, ptr %14, align 8, !tbaa !11
  %16 = fsub double %15, %6
  store double %16, ptr %14, align 8, !tbaa !11
  %17 = getelementptr inbounds nuw i8, ptr %14, i64 8
  %18 = load double, ptr %17, align 8, !tbaa !11
  %19 = fsub double %18, %9
  store double %19, ptr %17, align 8, !tbaa !11
  %20 = tail call ptr @agnxtnode(ptr noundef %0, ptr noundef nonnull %.013) #20
  %.not = icmp eq ptr %20, null
  br i1 %.not, label %._crit_edge, label %.lr.ph, !llvm.loop !171

._crit_edge:                                      ; preds = %.lr.ph, %1
  %21 = load ptr, ptr %2, align 8, !tbaa !20
  %22 = getelementptr inbounds nuw i8, ptr %21, i64 32
  %23 = load double, ptr %22, align 8
  %24 = getelementptr inbounds nuw i8, ptr %21, i64 40
  %25 = load double, ptr %24, align 8
  tail call fastcc void @shiftClusters(ptr noundef %0, double %23, double %25)
  %26 = load ptr, ptr %2, align 8, !tbaa !20
  %27 = getelementptr inbounds nuw i8, ptr %26, i64 152
  %28 = load i16, ptr %27, align 8, !tbaa !133
  %29 = and i16 %28, 14
  %30 = tail call zeroext i1 @neato_set_aspect(ptr noundef nonnull %0)
  %31 = icmp eq i16 %29, 0
  br i1 %31, label %spline_edges0.exit, label %32

32:                                               ; preds = %._crit_edge
  %33 = zext nneg i16 %29 to i32
  %34 = tail call range(i32 0, 2) i32 @splineEdges(ptr noundef nonnull %0, ptr noundef nonnull @spline_edges_, i32 noundef %33)
  br label %spline_edges0.exit

spline_edges0.exit:                               ; preds = %._crit_edge, %32
  ret void
}